target datalayout = "e-m:e-p270:32:32-p271:32:32-p272:64:64-i64:64-i128:128-f80:128-n8:16:32:64-S128"
target triple = "x86_64-pc-linux-gnu"

%struct.jobacctinfo = type { i32, i64, i32, i64, i32, i32, %struct.acct_gather_energy, double, double, i32, i32, i32, ptr, ptr, ptr, ptr, ptr, ptr, ptr, ptr, ptr, ptr, ptr, ptr, ptr, ptr, ptr, ptr, %struct.jobacct_id_t, i32, double, double, i64, i64 }
%struct.acct_gather_energy = type { i32, i64, i64, i32, i64, i64, i64 }
%struct.jobacct_id_t = type { i32, i32, ptr }

@assoc_mgr_tres_list = external global ptr, align 8

; Function Attrs: nounwind uwtable
define internal void @_free_tres_usage(ptr noundef %0) #0 {
  %2 = alloca ptr, align 8
  store ptr %0, ptr %2, align 8
  %3 = load ptr, ptr %2, align 8
  %4 = icmp ne ptr %3, null
  br i1 %4, label %5, label %61

5:                                                ; preds = %1
  %6 = load ptr, ptr %2, align 8
  %7 = getelementptr inbounds nuw %struct.jobacctinfo, ptr %6, i32 0, i32 12
  call void @slurm_xfree(ptr noundef %7)
  %8 = load ptr, ptr %2, align 8
  %9 = getelementptr inbounds nuw %struct.jobacctinfo, ptr %8, i32 0, i32 13
  %10 = load ptr, ptr %9, align 8
  %11 = icmp ne ptr %10, null
  br i1 %11, label %12, label %32

12:                                               ; preds = %5
  %13 = load ptr, ptr %2, align 8
  %14 = getelementptr inbounds nuw %struct.jobacctinfo, ptr %13, i32 0, i32 13
  %15 = load ptr, ptr %14, align 8
  %16 = load ptr, ptr @assoc_mgr_tres_list, align 8
  %17 = icmp ne ptr %15, %16
  br i1 %17, label %18, label %32

18:                                               ; preds = %12
  br label %19

19:                                               ; preds = %18
  %20 = load ptr, ptr %2, align 8
  %21 = getelementptr inbounds nuw %struct.jobacctinfo, ptr %20, i32 0, i32 13
  %22 = load ptr, ptr %21, align 8
  %23 = icmp ne ptr %22, null
  br i1 %23, label %24, label %28

24:                                               ; preds = %19
  %25 = load ptr, ptr %2, align 8
  %26 = getelementptr inbounds nuw %struct.jobacctinfo, ptr %25, i32 0, i32 13
  %27 = load ptr, ptr %26, align 8
  call void @list_destroy(ptr noundef %27)
  br label %28

28:                                               ; preds = %24, %19
  %29 = load ptr, ptr %2, align 8
  %30 = getelementptr inbounds nuw %struct.jobacctinfo, ptr %29, i32 0, i32 13
  store ptr null, ptr %30, align 8
  br label %31

31:                                               ; preds = %28
  br label %32

32:                                               ; preds = %31, %12, %5
  %33 = load ptr, ptr %2, align 8
  %34 = getelementptr inbounds nuw %struct.jobacctinfo, ptr %33, i32 0, i32 14
  call void @slurm_xfree(ptr noundef %34)
  %35 = load ptr, ptr %2, align 8
  %36 = getelementptr inbounds nuw %struct.jobacctinfo, ptr %35, i32 0, i32 15
  call void @slurm_xfree(ptr noundef %36)
  %37 = load ptr, ptr %2, align 8
  %38 = getelementptr inbounds nuw %struct.jobacctinfo, ptr %37, i32 0, i32 16
  call void @slurm_xfree(ptr noundef %38)
  %39 = load ptr, ptr %2, align 8
  %40 = getelementptr inbounds nuw %struct.jobacctinfo, ptr %39, i32 0, i32 17
  call void @slurm_xfree(ptr noundef %40)
  %41 = load ptr, ptr %2, align 8
  %42 = getelementptr inbounds nuw %struct.jobacctinfo, ptr %41, i32 0, i32 18
  call void @slurm_xfree(ptr noundef %42)
  %43 = load ptr, ptr %2, align 8
  %44 = getelementptr inbounds nuw %struct.jobacctinfo, ptr %43, i32 0, i32 19
  call void @slurm_xfree(ptr noundef %44)
  %45 = load ptr, ptr %2, align 8
  %46 = getelementptr inbounds nuw %struct.jobacctinfo, ptr %45, i32 0, i32 20
  call void @slurm_xfree(ptr noundef %46)
  %47 = load ptr, ptr %2, align 8
  %48 = getelementptr inbounds nuw %struct.jobacctinfo, ptr %47, i32 0, i32 21
  call void @slurm_xfree(ptr noundef %48)
  %49 = load ptr, ptr %2, align 8
  %50 = getelementptr inbounds nuw %struct.jobacctinfo, ptr %49, i32 0, i32 22
  call void @slurm_xfree(ptr noundef %50)
  %51 = load ptr, ptr %2, align 8
  %52 = getelementptr inbounds nuw %struct.jobacctinfo, ptr %51, i32 0, i32 23
  call void @slurm_xfree(ptr noundef %52)
  %53 = load ptr, ptr %2, align 8
  %54 = getelementptr inbounds nuw %struct.jobacctinfo, ptr %53, i32 0, i32 24
  call void @slurm_xfree(ptr noundef %54)
  %55 = load ptr, ptr %2, align 8
  %56 = getelementptr inbounds nuw %struct.jobacctinfo, ptr %55, i32 0, i32 25
  call void @slurm_xfree(ptr noundef %56)
  %57 = load ptr, ptr %2, align 8
  %58 = getelementptr inbounds nuw %struct.jobacctinfo, ptr %57, i32 0, i32 26
  call void @slurm_xfree(ptr noundef %58)
  %59 = load ptr, ptr %2, align 8
  %60 = getelementptr inbounds nuw %struct.jobacctinfo, ptr %59, i32 0, i32 27
  call void @slurm_xfree(ptr noundef %60)
  br label %61

61:                                               ; preds = %32, %1
  ret void
}