; Function Attrs: nounwind uwtable
define internal fastcc void @_free_tres_usage(ptr noundef %0) unnamed_addr #0 {
  %.not = icmp eq ptr %0, null
  br i1 %.not, label %23, label %2

2:                                                ; preds = %1
  %3 = getelementptr inbounds nuw i8, ptr %0, i64 128
  tail call void @slurm_xfree(ptr noundef nonnull %3) #10
  %4 = getelementptr inbounds nuw i8, ptr %0, i64 136
  %5 = load ptr, ptr %4, align 8
  %.not22 = icmp eq ptr %5, null
  %6 = load ptr, ptr @assoc_mgr_tres_list, align 8
  %.not23 = icmp eq ptr %5, %6
  %or.cond = select i1 %.not22, i1 true, i1 %.not23
  br i1 %or.cond, label %8, label %7

7:                                                ; preds = %2
  tail call void @list_destroy(ptr noundef nonnull %5) #10
  store ptr null, ptr %4, align 8
  br label %8

8:                                                ; preds = %7, %2
  %9 = getelementptr inbounds nuw i8, ptr %0, i64 144
  tail call void @slurm_xfree(ptr noundef nonnull %9) #10
  %10 = getelementptr inbounds nuw i8, ptr %0, i64 152
  tail call void @slurm_xfree(ptr noundef nonnull %10) #10
  %11 = getelementptr inbounds nuw i8, ptr %0, i64 160
  tail call void @slurm_xfree(ptr noundef nonnull %11) #10
  %12 = getelementptr inbounds nuw i8, ptr %0, i64 168
  tail call void @slurm_xfree(ptr noundef nonnull %12) #10
  %13 = getelementptr inbounds nuw i8, ptr %0, i64 176
  tail call void @slurm_xfree(ptr noundef nonnull %13) #10
  %14 = getelementptr inbounds nuw i8, ptr %0, i64 184
  tail call void @slurm_xfree(ptr noundef nonnull %14) #10
  %15 = getelementptr inbounds nuw i8, ptr %0, i64 192
  tail call void @slurm_xfree(ptr noundef nonnull %15) #10
  %16 = getelementptr inbounds nuw i8, ptr %0, i64 200
  tail call void @slurm_xfree(ptr noundef nonnull %16) #10
  %17 = getelementptr inbounds nuw i8, ptr %0, i64 208
  tail call void @slurm_xfree(ptr noundef nonnull %17) #10
  %18 = getelementptr inbounds nuw i8, ptr %0, i64 216
  tail call void @slurm_xfree(ptr noundef nonnull %18) #10
  %19 = getelementptr inbounds nuw i8, ptr %0, i64 224
  tail call void @slurm_xfree(ptr noundef nonnull %19) #10
  %20 = getelementptr inbounds nuw i8, ptr %0, i64 232
  tail call void @slurm_xfree(ptr noundef nonnull %20) #10
  %21 = getelementptr inbounds nuw i8, ptr %0, i64 240
  tail call void @slurm_xfree(ptr noundef nonnull %21) #10
  %22 = getelementptr inbounds nuw i8, ptr %0, i64 248
  tail call void @slurm_xfree(ptr noundef nonnull %22) #10
  br label %23

23:                                               ; preds = %8, %1
  ret void
}